target datalayout = "e-m:e-p270:32:32-p271:32:32-p272:64:64-i64:64-i128:128-f80:128-n8:16:32:64-S128"
target triple = "x86_64-pc-linux-gnu"

%struct.strbuf = type { i64, i64, ptr }
%struct.apply_state = type { ptr, %struct.lock_file, i32, i32, i32, i32, i32, i32, i32, i32, i32, i32, i32, i32, i32, i32, i32, i32, i32, ptr, ptr, i32, i32, ptr, ptr, i32, %struct.strbuf, i32, i32, i32, %struct.string_list, i32, i32, %struct.strset, %struct.strset, i32, i32, %struct.string_list, ptr, ptr, i32, i32, ptr, i32, i32, i32 }
%struct.lock_file = type { ptr }
%struct.strset = type { %struct.strmap }
%struct.strmap = type { %struct.hashmap, ptr, i8 }
%struct.hashmap = type { ptr, ptr, ptr, i32, i32, i32, i32, i8 }
%struct.string_list = type { ptr, i64, i64, i8, ptr }

@.str.23 = private unnamed_addr constant [1 x i8] zeroinitializer, align 1
@.str.111 = private unnamed_addr constant [5 x i8] c"warn\00", align 1
@.str.112 = private unnamed_addr constant [7 x i8] c"nowarn\00", align 1
@.str.113 = private unnamed_addr constant [6 x i8] c"error\00", align 1
@.str.114 = private unnamed_addr constant [10 x i8] c"error-all\00", align 1
@.str.115 = private unnamed_addr constant [6 x i8] c"strip\00", align 1
@.str.116 = private unnamed_addr constant [4 x i8] c"fix\00", align 1
@.str.117 = private unnamed_addr constant [36 x i8] c"unrecognized whitespace option '%s'\00", align 1
@git_gettext_enabled = external global i32, align 4

; Function Attrs: inlinehint nounwind uwtable
define internal i32 @const_error() #3 {
  ret i32 -1
}

; Function Attrs: inlinehint nounwind uwtable
define internal ptr @_(ptr noundef %0) #3 {
  %2 = alloca ptr, align 8
  %3 = alloca ptr, align 8
  store ptr %0, ptr %3, align 8, !tbaa !11
  %4 = load ptr, ptr %3, align 8, !tbaa !11
  %5 = load i8, ptr %4, align 1, !tbaa !57
  %6 = icmp ne i8 %5, 0
  br i1 %6, label %8, label %7

7:                                                ; preds = %1
  store ptr @.str.23, ptr %2, align 8
  br label %16

8:                                                ; preds = %1
  %9 = load i32, ptr @git_gettext_enabled, align 4, !tbaa !39
  %10 = icmp ne i32 %9, 0
  br i1 %10, label %13, label %11

11:                                               ; preds = %8
  %12 = load ptr, ptr %3, align 8, !tbaa !11
  store ptr %12, ptr %2, align 8
  br label %16

13:                                               ; preds = %8
  %14 = load ptr, ptr %3, align 8, !tbaa !11
  %15 = call ptr @dcgettext(ptr noundef null, ptr noundef %14, i32 noundef 5) #12
  store ptr %15, ptr %2, align 8
  br label %16

16:                                               ; preds = %13, %11, %7
  %17 = load ptr, ptr %2, align 8
  ret ptr %17
}

; Function Attrs: nounwind uwtable
define internal i32 @parse_whitespace_option(ptr noundef %0, ptr noundef %1) #0 {
  %3 = alloca i32, align 4
  %4 = alloca ptr, align 8
  %5 = alloca ptr, align 8
  store ptr %0, ptr %4, align 8, !tbaa !4
  store ptr %1, ptr %5, align 8, !tbaa !11
  %6 = load ptr, ptr %5, align 8, !tbaa !11
  %7 = icmp ne ptr %6, null
  br i1 %7, label %11, label %8

8:                                                ; preds = %2
  %9 = load ptr, ptr %4, align 8, !tbaa !4
  %10 = getelementptr inbounds nuw %struct.apply_state, ptr %9, i32 0, i32 40
  store i32 1, ptr %10, align 8, !tbaa !33
  store i32 0, ptr %3, align 4
  br label %57

11:                                               ; preds = %2
  %12 = load ptr, ptr %5, align 8, !tbaa !11
  %13 = call i32 @strcmp(ptr noundef %12, ptr noundef @.str.111) #11
  %14 = icmp ne i32 %13, 0
  br i1 %14, label %18, label %15

15:                                               ; preds = %11
  %16 = load ptr, ptr %4, align 8, !tbaa !4
  %17 = getelementptr inbounds nuw %struct.apply_state, ptr %16, i32 0, i32 40
  store i32 1, ptr %17, align 8, !tbaa !33
  store i32 0, ptr %3, align 4
  br label %57

18:                                               ; preds = %11
  %19 = load ptr, ptr %5, align 8, !tbaa !11
  %20 = call i32 @strcmp(ptr noundef %19, ptr noundef @.str.112) #11
  %21 = icmp ne i32 %20, 0
  br i1 %21, label %25, label %22

22:                                               ; preds = %18
  %23 = load ptr, ptr %4, align 8, !tbaa !4
  %24 = getelementptr inbounds nuw %struct.apply_state, ptr %23, i32 0, i32 40
  store i32 0, ptr %24, align 8, !tbaa !33
  store i32 0, ptr %3, align 4
  br label %57

25:                                               ; preds = %18
  %26 = load ptr, ptr %5, align 8, !tbaa !11
  %27 = call i32 @strcmp(ptr noundef %26, ptr noundef @.str.113) #11
  %28 = icmp ne i32 %27, 0
  br i1 %28, label %32, label %29

29:                                               ; preds = %25
  %30 = load ptr, ptr %4, align 8, !tbaa !4
  %31 = getelementptr inbounds nuw %struct.apply_state, ptr %30, i32 0, i32 40
  store i32 2, ptr %31, align 8, !tbaa !33
  store i32 0, ptr %3, align 4
  br label %57

32:                                               ; preds = %25
  %33 = load ptr, ptr %5, align 8, !tbaa !11
  %34 = call i32 @strcmp(ptr noundef %33, ptr noundef @.str.114) #11
  %35 = icmp ne i32 %34, 0
  br i1 %35, label %41, label %36

36:                                               ; preds = %32
  %37 = load ptr, ptr %4, align 8, !tbaa !4
  %38 = getelementptr inbounds nuw %struct.apply_state, ptr %37, i32 0, i32 40
  store i32 2, ptr %38, align 8, !tbaa !33
  %39 = load ptr, ptr %4, align 8, !tbaa !4
  %40 = getelementptr inbounds nuw %struct.apply_state, ptr %39, i32 0, i32 44
  store i32 0, ptr %40, align 4, !tbaa !32
  store i32 0, ptr %3, align 4
  br label %57

41:                                               ; preds = %32
  %42 = load ptr, ptr %5, align 8, !tbaa !11
  %43 = call i32 @strcmp(ptr noundef %42, ptr noundef @.str.115) #11
  %44 = icmp ne i32 %43, 0
  br i1 %44, label %45, label %49

45:                                               ; preds = %41
  %46 = load ptr, ptr %5, align 8, !tbaa !11
  %47 = call i32 @strcmp(ptr noundef %46, ptr noundef @.str.116) #11
  %48 = icmp ne i32 %47, 0
  br i1 %48, label %52, label %49

49:                                               ; preds = %45, %41
  %50 = load ptr, ptr %4, align 8, !tbaa !4
  %51 = getelementptr inbounds nuw %struct.apply_state, ptr %50, i32 0, i32 40
  store i32 3, ptr %51, align 8, !tbaa !33
  store i32 0, ptr %3, align 4
  br label %57

52:                                               ; preds = %45
  %53 = call ptr @_(ptr noundef @.str.117)
  %54 = load ptr, ptr %5, align 8, !tbaa !11
  %55 = call i32 (ptr, ...) @error(ptr noundef %53, ptr noundef %54)
  %56 = call i32 @const_error()
  store i32 %56, ptr %3, align 4
  br label %57

57:                                               ; preds = %52, %49, %36, %29, %22, %15, %8
  %58 = load i32, ptr %3, align 4
  ret i32 %58
}