; Function Attrs: nounwind uwtable
define internal fastcc range(i32 -1, 1) i32 @parse_whitespace_option(ptr noundef writeonly captures(none) %0, ptr noundef %1) unnamed_addr #0 {
  %.not = icmp eq ptr %1, null
  br i1 %.not, label %3, label %5

3:                                                ; preds = %2
  %4 = getelementptr inbounds nuw i8, ptr %0, i64 416
  store i32 1, ptr %4, align 8, !tbaa !29
  br label %33

5:                                                ; preds = %2
  %6 = tail call i32 @strcmp(ptr noundef nonnull dereferenceable(1) %1, ptr noundef nonnull dereferenceable(5) @.str.111) #22
  %.not16 = icmp eq i32 %6, 0
  br i1 %.not16, label %7, label %9

7:                                                ; preds = %5
  %8 = getelementptr inbounds nuw i8, ptr %0, i64 416
  store i32 1, ptr %8, align 8, !tbaa !29
  br label %33

9:                                                ; preds = %5
  %10 = tail call i32 @strcmp(ptr noundef nonnull dereferenceable(1) %1, ptr noundef nonnull dereferenceable(7) @.str.112) #22
  %.not17 = icmp eq i32 %10, 0
  br i1 %.not17, label %11, label %13

11:                                               ; preds = %9
  %12 = getelementptr inbounds nuw i8, ptr %0, i64 416
  store i32 0, ptr %12, align 8, !tbaa !29
  br label %33

13:                                               ; preds = %9
  %14 = tail call i32 @strcmp(ptr noundef nonnull dereferenceable(1) %1, ptr noundef nonnull dereferenceable(6) @.str.113) #22
  %.not18 = icmp eq i32 %14, 0
  br i1 %.not18, label %15, label %17

15:                                               ; preds = %13
  %16 = getelementptr inbounds nuw i8, ptr %0, i64 416
  store i32 2, ptr %16, align 8, !tbaa !29
  br label %33

17:                                               ; preds = %13
  %18 = tail call i32 @strcmp(ptr noundef nonnull dereferenceable(1) %1, ptr noundef nonnull dereferenceable(10) @.str.114) #22
  %.not19 = icmp eq i32 %18, 0
  br i1 %.not19, label %19, label %22

19:                                               ; preds = %17
  %20 = getelementptr inbounds nuw i8, ptr %0, i64 416
  store i32 2, ptr %20, align 8, !tbaa !29
  %21 = getelementptr inbounds nuw i8, ptr %0, i64 436
  store i32 0, ptr %21, align 4, !tbaa !28
  br label %33

22:                                               ; preds = %17
  %23 = tail call i32 @strcmp(ptr noundef nonnull dereferenceable(1) %1, ptr noundef nonnull dereferenceable(6) @.str.115) #22
  %.not20 = icmp eq i32 %23, 0
  br i1 %.not20, label %26, label %24

24:                                               ; preds = %22
  %25 = tail call i32 @strcmp(ptr noundef nonnull dereferenceable(1) %1, ptr noundef nonnull dereferenceable(4) @.str.116) #22
  %.not21 = icmp eq i32 %25, 0
  br i1 %.not21, label %26, label %28

26:                                               ; preds = %24, %22
  %27 = getelementptr inbounds nuw i8, ptr %0, i64 416
  store i32 3, ptr %27, align 8, !tbaa !29
  br label %33

28:                                               ; preds = %24
  %29 = load i32, ptr @git_gettext_enabled, align 4, !tbaa !34
  %.not4.i = icmp eq i32 %29, 0
  br i1 %.not4.i, label %_.exit, label %30

30:                                               ; preds = %28
  %31 = tail call ptr @dcgettext(ptr noundef null, ptr noundef nonnull @.str.117, i32 noundef 5) #21
  br label %_.exit

_.exit:                                           ; preds = %28, %30
  %.0.i = phi ptr [ %31, %30 ], [ @.str.117, %28 ]
  %32 = tail call i32 (ptr, ...) @error(ptr noundef %.0.i, ptr noundef nonnull %1) #21
  br label %33

33:                                               ; preds = %_.exit, %26, %19, %15, %11, %7, %3
  %.0 = phi i32 [ -1, %_.exit ], [ 0, %26 ], [ 0, %19 ], [ 0, %15 ], [ 0, %11 ], [ 0, %7 ], [ 0, %3 ]
  ret i32 %.0
}